target datalayout = "e-m:e-p270:32:32-p271:32:32-p272:64:64-i64:64-i128:128-f80:128-n8:16:32:64-S128"
target triple = "x86_64-pc-linux-gnu"

%struct.bufferevent_private = type { %struct.bufferevent, ptr, i8, i16, i16, i16, i32, i32, %struct.event_callback, i32, i32, ptr, i64, i64, ptr, %union.anon.7, ptr }
%struct.bufferevent = type { ptr, ptr, %struct.event, %struct.event, ptr, ptr, %struct.event_watermark, %struct.event_watermark, ptr, ptr, ptr, ptr, %struct.timeval, %struct.timeval, i16 }
%struct.event = type { %struct.event_callback, %union.anon.0, i32, i16, i16, ptr, %union.anon.2, %struct.timeval }
%union.anon.0 = type { %struct.anon.1 }
%struct.anon.1 = type { ptr, ptr }
%union.anon.2 = type { %struct.anon.3 }
%struct.anon.3 = type { %struct.anon.4, %struct.timeval }
%struct.anon.4 = type { ptr, ptr }
%struct.event_watermark = type { i64, i64 }
%struct.timeval = type { i64, i64 }
%struct.event_callback = type { %struct.anon, i16, i8, i8, %union.anon, ptr }
%struct.anon = type { ptr, ptr }
%union.anon = type { ptr }
%union.anon.7 = type { %struct.sockaddr_in6 }
%struct.sockaddr_in6 = type { i16, i16, i32, %struct.in6_addr, i32 }
%struct.in6_addr = type { %union.anon.8 }
%union.anon.8 = type { [4 x i32] }

@.str = private unnamed_addr constant [42 x i8] c"UNLOCK_CALLBACKS requires DEFER_CALLBACKS\00", align 1

; Function Attrs: nounwind uwtable
define i32 @bufferevent_init_common_(ptr noundef %0, ptr noundef %1, ptr noundef %2, i32 noundef %3) #0 {
  %5 = alloca i32, align 4
  %6 = alloca ptr, align 8
  %7 = alloca ptr, align 8
  %8 = alloca ptr, align 8
  %9 = alloca i32, align 4
  %10 = alloca ptr, align 8
  %11 = alloca i32, align 4
  store ptr %0, ptr %6, align 8
  store ptr %1, ptr %7, align 8
  store ptr %2, ptr %8, align 8
  store i32 %3, ptr %9, align 4
  call void @llvm.lifetime.start.p0(i64 8, ptr %10) #7
  %12 = load ptr, ptr %6, align 8
  %13 = getelementptr inbounds nuw %struct.bufferevent_private, ptr %12, i32 0, i32 0
  store ptr %13, ptr %10, align 8
  %14 = load ptr, ptr %10, align 8
  %15 = getelementptr inbounds nuw %struct.bufferevent, ptr %14, i32 0, i32 4
  %16 = load ptr, ptr %15, align 8
  %17 = icmp ne ptr %16, null
  br i1 %17, label %25, label %18

18:                                               ; preds = %4
  %19 = call ptr @evbuffer_new()
  %20 = load ptr, ptr %10, align 8
  %21 = getelementptr inbounds nuw %struct.bufferevent, ptr %20, i32 0, i32 4
  store ptr %19, ptr %21, align 8
  %22 = icmp eq ptr %19, null
  br i1 %22, label %23, label %24

23:                                               ; preds = %18
  br label %111

24:                                               ; preds = %18
  br label %25

25:                                               ; preds = %24, %4
  %26 = load ptr, ptr %10, align 8
  %27 = getelementptr inbounds nuw %struct.bufferevent, ptr %26, i32 0, i32 5
  %28 = load ptr, ptr %27, align 8
  %29 = icmp ne ptr %28, null
  br i1 %29, label %37, label %30

30:                                               ; preds = %25
  %31 = call ptr @evbuffer_new()
  %32 = load ptr, ptr %10, align 8
  %33 = getelementptr inbounds nuw %struct.bufferevent, ptr %32, i32 0, i32 5
  store ptr %31, ptr %33, align 8
  %34 = icmp eq ptr %31, null
  br i1 %34, label %35, label %36

35:                                               ; preds = %30
  br label %111

36:                                               ; preds = %30
  br label %37

37:                                               ; preds = %36, %25
  %38 = load ptr, ptr %6, align 8
  %39 = getelementptr inbounds nuw %struct.bufferevent_private, ptr %38, i32 0, i32 10
  store i32 1, ptr %39, align 4
  %40 = load ptr, ptr %7, align 8
  %41 = load ptr, ptr %10, align 8
  %42 = getelementptr inbounds nuw %struct.bufferevent, ptr %41, i32 0, i32 0
  store ptr %40, ptr %42, align 8
  %43 = load ptr, ptr %10, align 8
  %44 = getelementptr inbounds nuw %struct.bufferevent, ptr %43, i32 0, i32 12
  %45 = getelementptr inbounds nuw %struct.timeval, ptr %44, i32 0, i32 1
  store i64 0, ptr %45, align 8
  %46 = load ptr, ptr %10, align 8
  %47 = getelementptr inbounds nuw %struct.bufferevent, ptr %46, i32 0, i32 12
  %48 = getelementptr inbounds nuw %struct.timeval, ptr %47, i32 0, i32 0
  store i64 0, ptr %48, align 8
  %49 = load ptr, ptr %10, align 8
  %50 = getelementptr inbounds nuw %struct.bufferevent, ptr %49, i32 0, i32 13
  %51 = getelementptr inbounds nuw %struct.timeval, ptr %50, i32 0, i32 1
  store i64 0, ptr %51, align 8
  %52 = load ptr, ptr %10, align 8
  %53 = getelementptr inbounds nuw %struct.bufferevent, ptr %52, i32 0, i32 13
  %54 = getelementptr inbounds nuw %struct.timeval, ptr %53, i32 0, i32 0
  store i64 0, ptr %54, align 8
  %55 = load ptr, ptr %8, align 8
  %56 = load ptr, ptr %10, align 8
  %57 = getelementptr inbounds nuw %struct.bufferevent, ptr %56, i32 0, i32 1
  store ptr %55, ptr %57, align 8
  %58 = load ptr, ptr %6, align 8
  %59 = call i32 @bufferevent_ratelim_init_(ptr noundef %58)
  %60 = icmp ne i32 %59, 0
  br i1 %60, label %61, label %62

61:                                               ; preds = %37
  br label %111

62:                                               ; preds = %37
  %63 = load ptr, ptr %10, align 8
  %64 = getelementptr inbounds nuw %struct.bufferevent, ptr %63, i32 0, i32 14
  store i16 4, ptr %64, align 8
  %65 = load i32, ptr %9, align 4
  %66 = and i32 %65, 2
  %67 = icmp ne i32 %66, 0
  br i1 %67, label %68, label %74

68:                                               ; preds = %62
  %69 = load ptr, ptr %10, align 8
  %70 = call i32 @bufferevent_enable_locking_(ptr noundef %69, ptr noundef null)
  %71 = icmp slt i32 %70, 0
  br i1 %71, label %72, label %73

72:                                               ; preds = %68
  br label %111

73:                                               ; preds = %68
  br label %74

74:                                               ; preds = %73, %62
  %75 = load i32, ptr %9, align 4
  %76 = and i32 %75, 12
  %77 = icmp eq i32 %76, 8
  br i1 %77, label %78, label %79

78:                                               ; preds = %74
  call void (ptr, ...) @event_warnx(ptr noundef @.str)
  br label %111

79:                                               ; preds = %74
  %80 = load i32, ptr %9, align 4
  %81 = and i32 %80, 8
  %82 = icmp ne i32 %81, 0
  br i1 %82, label %83, label %91

83:                                               ; preds = %79
  %84 = load ptr, ptr %6, align 8
  %85 = getelementptr inbounds nuw %struct.bufferevent_private, ptr %84, i32 0, i32 8
  %86 = load ptr, ptr %7, align 8
  %87 = call i32 @event_base_get_npriorities(ptr noundef %86)
  %88 = sdiv i32 %87, 2
  %89 = trunc i32 %88 to i8
  %90 = load ptr, ptr %6, align 8
  call void @event_deferred_cb_init_(ptr noundef %85, i8 noundef zeroext %89, ptr noundef @bufferevent_run_deferred_callbacks_unlocked, ptr noundef %90)
  br label %99

91:                                               ; preds = %79
  %92 = load ptr, ptr %6, align 8
  %93 = getelementptr inbounds nuw %struct.bufferevent_private, ptr %92, i32 0, i32 8
  %94 = load ptr, ptr %7, align 8
  %95 = call i32 @event_base_get_npriorities(ptr noundef %94)
  %96 = sdiv i32 %95, 2
  %97 = trunc i32 %96 to i8
  %98 = load ptr, ptr %6, align 8
  call void @event_deferred_cb_init_(ptr noundef %93, i8 noundef zeroext %97, ptr noundef @bufferevent_run_deferred_callbacks_locked, ptr noundef %98)
  br label %99

99:                                               ; preds = %91, %83
  %100 = load i32, ptr %9, align 4
  %101 = load ptr, ptr %6, align 8
  %102 = getelementptr inbounds nuw %struct.bufferevent_private, ptr %101, i32 0, i32 9
  store i32 %100, ptr %102, align 8
  %103 = load ptr, ptr %10, align 8
  %104 = getelementptr inbounds nuw %struct.bufferevent, ptr %103, i32 0, i32 4
  %105 = load ptr, ptr %104, align 8
  %106 = load ptr, ptr %10, align 8
  call void @evbuffer_set_parent_(ptr noundef %105, ptr noundef %106)
  %107 = load ptr, ptr %10, align 8
  %108 = getelementptr inbounds nuw %struct.bufferevent, ptr %107, i32 0, i32 5
  %109 = load ptr, ptr %108, align 8
  %110 = load ptr, ptr %10, align 8
  call void @evbuffer_set_parent_(ptr noundef %109, ptr noundef %110)
  store i32 0, ptr %5, align 4
  store i32 1, ptr %11, align 4
  br label %134

111:                                              ; preds = %78, %72, %61, %35, %23
  %112 = load ptr, ptr %10, align 8
  %113 = getelementptr inbounds nuw %struct.bufferevent, ptr %112, i32 0, i32 4
  %114 = load ptr, ptr %113, align 8
  %115 = icmp ne ptr %114, null
  br i1 %115, label %116, label %122

116:                                              ; preds = %111
  %117 = load ptr, ptr %10, align 8
  %118 = getelementptr inbounds nuw %struct.bufferevent, ptr %117, i32 0, i32 4
  %119 = load ptr, ptr %118, align 8
  call void @evbuffer_free(ptr noundef %119)
  %120 = load ptr, ptr %10, align 8
  %121 = getelementptr inbounds nuw %struct.bufferevent, ptr %120, i32 0, i32 4
  store ptr null, ptr %121, align 8
  br label %122

122:                                              ; preds = %116, %111
  %123 = load ptr, ptr %10, align 8
  %124 = getelementptr inbounds nuw %struct.bufferevent, ptr %123, i32 0, i32 5
  %125 = load ptr, ptr %124, align 8
  %126 = icmp ne ptr %125, null
  br i1 %126, label %127, label %133

127:                                              ; preds = %122
  %128 = load ptr, ptr %10, align 8
  %129 = getelementptr inbounds nuw %struct.bufferevent, ptr %128, i32 0, i32 5
  %130 = load ptr, ptr %129, align 8
  call void @evbuffer_free(ptr noundef %130)
  %131 = load ptr, ptr %10, align 8
  %132 = getelementptr inbounds nuw %struct.bufferevent, ptr %131, i32 0, i32 5
  store ptr null, ptr %132, align 8
  br label %133

133:                                              ; preds = %127, %122
  store i32 -1, ptr %5, align 4
  store i32 1, ptr %11, align 4
  br label %134

134:                                              ; preds = %133, %99
  call void @llvm.lifetime.end.p0(i64 8, ptr %10) #7
  %135 = load i32, ptr %5, align 4
  ret i32 %135
}