; Function Attrs: nounwind uwtable
define range(i32 -1, 1) i32 @bufferevent_init_common_(ptr noundef %0, ptr noundef %1, ptr noundef %2, i32 noundef %3) local_unnamed_addr #0 {
  %5 = getelementptr inbounds nuw i8, ptr %0, i64 256
  %6 = load ptr, ptr %5, align 8
  %.not = icmp eq ptr %6, null
  br i1 %.not, label %7, label %10

7:                                                ; preds = %4
  %8 = tail call ptr @evbuffer_new() #7
  store ptr %8, ptr %5, align 8
  %9 = icmp eq ptr %8, null
  br i1 %9, label %.thread, label %10

10:                                               ; preds = %7, %4
  %11 = getelementptr inbounds nuw i8, ptr %0, i64 264
  %12 = load ptr, ptr %11, align 8
  %.not40 = icmp eq ptr %12, null
  br i1 %.not40, label %13, label %16

13:                                               ; preds = %10
  %14 = tail call ptr @evbuffer_new() #7
  store ptr %14, ptr %11, align 8
  %15 = icmp eq ptr %14, null
  br i1 %15, label %40, label %16

16:                                               ; preds = %13, %10
  %17 = getelementptr inbounds nuw i8, ptr %0, i64 444
  store i32 1, ptr %17, align 4
  store ptr %1, ptr %0, align 8
  %18 = getelementptr inbounds nuw i8, ptr %0, i64 336
  %19 = getelementptr inbounds nuw i8, ptr %0, i64 8
  tail call void @llvm.memset.p0.i64(ptr noundef nonnull align 8 dereferenceable(32) %18, i8 0, i64 32, i1 false)
  store ptr %2, ptr %19, align 8
  %20 = tail call i32 @bufferevent_ratelim_init_(ptr noundef nonnull %0) #7
  %.not41 = icmp eq i32 %20, 0
  br i1 %.not41, label %21, label %40

21:                                               ; preds = %16
  %22 = getelementptr inbounds nuw i8, ptr %0, i64 368
  store i16 4, ptr %22, align 8
  %23 = and i32 %3, 2
  %.not42 = icmp eq i32 %23, 0
  br i1 %.not42, label %27, label %24

24:                                               ; preds = %21
  %25 = tail call i32 @bufferevent_enable_locking_(ptr noundef nonnull %0, ptr noundef null)
  %26 = icmp slt i32 %25, 0
  br i1 %26, label %40, label %27

27:                                               ; preds = %24, %21
  %28 = and i32 %3, 12
  %29 = icmp eq i32 %28, 8
  br i1 %29, label %30, label %31

30:                                               ; preds = %27
  tail call void (ptr, ...) @event_warnx(ptr noundef nonnull @.str) #7
  br label %40

31:                                               ; preds = %27
  %32 = and i32 %3, 8
  %.not43 = icmp eq i32 %32, 0
  %33 = getelementptr inbounds nuw i8, ptr %0, i64 400
  %34 = tail call i32 @event_base_get_npriorities(ptr noundef %1) #7
  %35 = sdiv i32 %34, 2
  %36 = trunc i32 %35 to i8
  %bufferevent_run_deferred_callbacks_locked.bufferevent_run_deferred_callbacks_unlocked = select i1 %.not43, ptr @bufferevent_run_deferred_callbacks_locked, ptr @bufferevent_run_deferred_callbacks_unlocked
  tail call void @event_deferred_cb_init_(ptr noundef nonnull %33, i8 noundef zeroext %36, ptr noundef nonnull %bufferevent_run_deferred_callbacks_locked.bufferevent_run_deferred_callbacks_unlocked, ptr noundef nonnull %0) #7
  %37 = getelementptr inbounds nuw i8, ptr %0, i64 440
  store i32 %3, ptr %37, align 8
  %38 = load ptr, ptr %5, align 8
  tail call void @evbuffer_set_parent_(ptr noundef %38, ptr noundef nonnull %0) #7
  %39 = load ptr, ptr %11, align 8
  tail call void @evbuffer_set_parent_(ptr noundef %39, ptr noundef nonnull %0) #7
  br label %45

40:                                               ; preds = %24, %16, %13, %30
  %.pr = load ptr, ptr %5, align 8
  %.not44 = icmp eq ptr %.pr, null
  br i1 %.not44, label %.thread, label %41

41:                                               ; preds = %40
  tail call void @evbuffer_free(ptr noundef nonnull %.pr) #7
  store ptr null, ptr %5, align 8
  br label %.thread

.thread:                                          ; preds = %7, %41, %40
  %42 = getelementptr inbounds nuw i8, ptr %0, i64 264
  %43 = load ptr, ptr %42, align 8
  %.not45 = icmp eq ptr %43, null
  br i1 %.not45, label %45, label %44

44:                                               ; preds = %.thread
  tail call void @evbuffer_free(ptr noundef nonnull %43) #7
  store ptr null, ptr %42, align 8
  br label %45

45:                                               ; preds = %.thread, %44, %31
  %.0 = phi i32 [ 0, %31 ], [ -1, %44 ], [ -1, %.thread ]
  ret i32 %.0
}